(dp1
S'output'
p2
S"<type 'exceptions.AttributeError'> 'int' object has no attribute 'year'"
p3
sS'layer'
p4
S'/Users/rafihaque/Documents/cmps183/web2py/applications/hicappo/controllers/default.py'
p5
sS'code'
p6
S'<code object <module> at 0x1046e96b0, file "/Users/rafihaque/Documents/cmps183/web2py/applications/hicappo/controllers/default.py", line 12>'
p7
sS'snapshot'
p8
(dp9
sS'traceback'
p10
S'Traceback (most recent call last):\n  File "/Users/rafihaque/Documents/cmps183/web2py/gluon/restricted.py", line 219, in restricted\n    exec(ccode, environment)\n  File "/Users/rafihaque/Documents/cmps183/web2py/applications/hicappo/controllers/default.py", line 104, in <module>\n  File "/Users/rafihaque/Documents/cmps183/web2py/gluon/globals.py", line 419, in <lambda>\n    self._caller = lambda f: f()\n  File "/Users/rafihaque/Documents/cmps183/web2py/applications/hicappo/controllers/default.py", line 96, in payment_history\n    fields = [db.payment_history.tenant,db.payment_history.amount,db.payment_history.updated_on],\n  File "/Users/rafihaque/Documents/cmps183/web2py/gluon/sqlhtml.py", line 2529, in grid\n    create_form = SQLFORM(table, **sqlformargs)\n  File "/Users/rafihaque/Documents/cmps183/web2py/gluon/sqlhtml.py", line 1471, in __init__\n    default = field.formatter(default)\n  File "/Users/rafihaque/Documents/cmps183/web2py/gluon/packages/dal/pydal/objects.py", line 1841, in formatter\n    value = item.formatter(value)\n  File "/Users/rafihaque/Documents/cmps183/web2py/gluon/validators.py", line 2702, in formatter\n    return self.other.formatter(value)\n  File "/Users/rafihaque/Documents/cmps183/web2py/gluon/validators.py", line 2326, in formatter\n    year = value.year\nAttributeError: \'int\' object has no attribute \'year\'\n'
p11
s.