(dp1
S'output'
p2
S'<class \'sqlite3.OperationalError\'> table "reply_maintenance" already exists'
p3
sS'layer'
p4
S'/Users/rafihaque/Documents/cmps183/web2py/applications/hicappo/models/tables.py'
p5
sS'code'
p6
S'<code object <module> at 0x103bea3b0, file "/Users/rafihaque/Documents/cmps183/web2py/applications/hicappo/models/tables.py", line 9>'
p7
sS'snapshot'
p8
(dp9
S'exception'
p10
(dp11
S'__module__'
p12
S"'sqlite3'"
p13
sS'__getslice__'
p14
S"<method-wrapper '__getslice__' of OperationalError object>"
p15
sS'__str__'
p16
S"<method-wrapper '__str__' of OperationalError object>"
p17
sS'__reduce__'
p18
S'<built-in method __reduce__ of OperationalError object>'
p19
sS'__dict__'
p20
S'{}'
p21
sS'__sizeof__'
p22
S'<built-in method __sizeof__ of OperationalError object>'
p23
sS'__weakref__'
p24
S'None'
p25
sS'message'
p26
S'\'table "reply_maintenance" already exists\''
p27
sS'__init__'
p28
S"<method-wrapper '__init__' of OperationalError object>"
p29
sS'__setattr__'
p30
S"<method-wrapper '__setattr__' of OperationalError object>"
p31
sS'__reduce_ex__'
p32
S'<built-in method __reduce_ex__ of OperationalError object>'
p33
sS'__new__'
p34
S'<built-in method __new__ of type object>'
p35
sS'__format__'
p36
S'<built-in method __format__ of OperationalError object>'
p37
sS'__class__'
p38
S"<class 'sqlite3.OperationalError'>"
p39
sS'__doc__'
p40
S'None'
p41
sS'__getitem__'
p42
S"<method-wrapper '__getitem__' of OperationalError object>"
p43
sS'__setstate__'
p44
S'<built-in method __setstate__ of OperationalError object>'
p45
sS'__getattribute__'
p46
S"<method-wrapper '__getattribute__' of OperationalError object>"
p47
sS'args'
p48
S'(\'table "reply_maintenance" already exists\',)'
p49
sS'__subclasshook__'
p50
S'<built-in method __subclasshook__ of type object>'
p51
sS'__unicode__'
p52
S'<built-in method __unicode__ of OperationalError object>'
p53
sS'__delattr__'
p54
S"<method-wrapper '__delattr__' of OperationalError object>"
p55
sS'__repr__'
p56
S"<method-wrapper '__repr__' of OperationalError object>"
p57
sS'__hash__'
p58
S"<method-wrapper '__hash__' of OperationalError object>"
p59
ssS'evalue'
p60
S'table "reply_maintenance" already exists'
p61
sS'request'
p62
cgluon.html
XML_unpickle
p63
(S's\xacV\x00\x00<div><table><tr><td style="font-weight:bold;vertical-align:top;">ajax</td><td style="vertical-align:top;">:</td><td><div>False</div></td></tr><tr><td style="font-weight:bold;vertical-align:top;">application</td><td style="vertical-align:top;">:</td><td><div>hicappo</div></td></tr><tr><td style="font-weight:bold;vertical-align:top;">args</td><td style="vertical-align:top;">:</td><td><div><table></table></div></td></tr><tr><td style="font-weight:bold;vertical-align:top;">cid</td><td style="vertical-align:top;">:</td><td><div>None</div></td></tr><tr><td style="font-weight:bold;vertical-align:top;">client</td><td style="vertical-align:top;">:</td><td><div>127.0.0.1</div></td></tr><tr><td style="font-weight:bold;vertical-align:top;">controller</td><td style="vertical-align:top;">:</td><td><div>default</div></td></tr><tr><td style="font-weight:bold;vertical-align:top;">cookies</td><td style="vertical-align:top;">:</td><td><div><table><tr><td style="font-weight:bold;vertical-align:top;">session_id_hicappo</td><td style="vertical-align:top;">:</td><td><div>117:09052709-dc7d-46f8-a56a-9190c0d9b0cc<table><tr><td style="font-weight:bold;vertical-align:top;">comment</td><td style="vertical-align:top;">:</td><td><div></div></td></tr><tr><td style="font-weight:bold;vertical-align:top;">domain</td><td style="vertical-align:top;">:</td><td><div></div></td></tr><tr><td style="font-weight:bold;vertical-align:top;">expires</td><td style="vertical-align:top;">:</td><td><div></div></td></tr><tr><td style="font-weight:bold;vertical-align:top;">httponly</td><td style="vertical-align:top;">:</td><td><div></div></td></tr><tr><td style="font-weight:bold;vertical-align:top;">max-age</td><td style="vertical-align:top;">:</td><td><div></div></td></tr><tr><td style="font-weight:bold;vertical-align:top;">path</td><td style="vertical-align:top;">:</td><td><div></div></td></tr><tr><td style="font-weight:bold;vertical-align:top;">secure</td><td style="vertical-align:top;">:</td><td><div></div></td></tr><tr><td style="font-weight:bold;vertical-align:top;">version</td><td style="vertical-align:top;">:</td><td><div></div></td></tr></table></div></td></tr><tr><td style="font-weight:bold;vertical-align:top;">session_id_welcome</td><td style="vertical-align:top;">:</td><td><div>127.0.0.1-ba2a4c74-e850-40d1-9bac-e3e2ecb5f2cc<table><tr><td style="font-weight:bold;vertical-align:top;">comment</td><td style="vertical-align:top;">:</td><td><div></div></td></tr><tr><td style="font-weight:bold;vertical-align:top;">domain</td><td style="vertical-align:top;">:</td><td><div></div></td></tr><tr><td style="font-weight:bold;vertical-align:top;">expires</td><td style="vertical-align:top;">:</td><td><div></div></td></tr><tr><td style="font-weight:bold;vertical-align:top;">httponly</td><td style="vertical-align:top;">:</td><td><div></div></td></tr><tr><td style="font-weight:bold;vertical-align:top;">max-age</td><td style="vertical-align:top;">:</td><td><div></div></td></tr><tr><td style="font-weight:bold;vertical-align:top;">path</td><td style="vertical-align:top;">:</td><td><div></div></td></tr><tr><td style="font-weight:bold;vertical-align:top;">secure</td><td style="vertical-align:top;">:</td><td><div></div></td></tr><tr><td style="font-weight:bold;vertical-align:top;">version</td><td style="vertical-align:top;">:</td><td><div></div></td></tr></table></div></td></tr></table></div></td></tr><tr><td style="font-weight:bold;vertical-align:top;">env</td><td style="vertical-align:top;">:</td><td><div><table><tr><td style="font-weight:bold;vertical-align:top;">HTTP_ACCEPT</td><td style="vertical-align:top;">:</td><td><div>text/html,application/xhtml+xml,application/xml;q=0.9,image/webp,image/apng,*/*;q=0.8</div></td></tr><tr><td style="font-weight:bold;vertical-align:top;">HTTP_ACCEPT_ENCODING</td><td style="vertical-align:top;">:</td><td><div>gzip, deflate, br</div></td></tr><tr><td style="font-weight:bold;vertical-align:top;">HTTP_ACCEPT_LANGUAGE</td><td style="vertical-align:top;">:</td><td><div>en-US,en;q=0.9,bn;q=0.8</div></td></tr><tr><td style="font-weight:bold;vertical-align:top;">HTTP_CONNECTION</td><td style="vertical-align:top;">:</td><td><div>keep-alive</div></td></tr><tr><td style="font-weight:bold;vertical-align:top;">HTTP_COOKIE</td><td style="vertical-align:top;">:</td><td><div>session_id_hicappo=&quot;117:09052709-dc7d-46f8-a56a-9190c0d9b0cc&quot;; session_id_welcome=127.0.0.1-ba2a4c74-e850-40d1-9bac-e3e2ecb5f2cc</div></td></tr><tr><td style="font-weight:bold;vertical-align:top;">HTTP_HOST</td><td style="vertical-align:top;">:</td><td><div>127.0.0.1:8800</div></td></tr><tr><td style="font-weight:bold;vertical-align:top;">HTTP_UPGRADE_INSECURE_REQUESTS</td><td style="vertical-align:top;">:</td><td><div>1</div></td></tr><tr><td style="font-weight:bold;vertical-align:top;">HTTP_USER_AGENT</td><td style="vertical-align:top;">:</td><td><div>Mozilla/5.0 (Macintosh; Intel Mac OS X 10_12_6) AppleWebKit/537.36 (KHTML, like Gecko) Chrome/69.0.3497.100 Safari/537.36</div></td></tr><tr><td style="font-weight:bold;vertical-align:top;">PATH_INFO</td><td style="vertical-align:top;">:</td><td><div>/hicappo</div></td></tr><tr><td style="font-weight:bold;vertical-align:top;">QUERY_STRING</td><td style="vertical-align:top;">:</td><td><div></div></td></tr><tr><td style="font-weight:bold;vertical-align:top;">REMOTE_ADDR</td><td style="vertical-align:top;">:</td><td><div>127.0.0.1</div></td></tr><tr><td style="font-weight:bold;vertical-align:top;">REMOTE_PORT</td><td style="vertical-align:top;">:</td><td><div>63629</div></td></tr><tr><td style="font-weight:bold;vertical-align:top;">REQUEST_METHOD</td><td style="vertical-align:top;">:</td><td><div>GET</div></td></tr><tr><td style="font-weight:bold;vertical-align:top;">SCRIPT_NAME</td><td style="vertical-align:top;">:</td><td><div></div></td></tr><tr><td style="font-weight:bold;vertical-align:top;">SERVER_NAME</td><td style="vertical-align:top;">:</td><td><div>eduroam-169-233-233-236.ucsc.edu</div></td></tr><tr><td style="font-weight:bold;vertical-align:top;">SERVER_PORT</td><td style="vertical-align:top;">:</td><td><div>8800</div></td></tr><tr><td style="font-weight:bold;vertical-align:top;">SERVER_PROTOCOL</td><td style="vertical-align:top;">:</td><td><div>HTTP/1.1</div></td></tr><tr><td style="font-weight:bold;vertical-align:top;">SERVER_SOFTWARE</td><td style="vertical-align:top;">:</td><td><div>Rocket 1.2.6</div></td></tr><tr><td style="font-weight:bold;vertical-align:top;">app_folders</td><td style="vertical-align:top;">:</td><td><div>set([&#x27;/Users/rafihaque/Documents/cmps183/web2py/applications/welcome/&#x27;, &#x27;/Users/rafihaque/Documents/cmps183/web2py/applications/hicappo/&#x27;])</div></td></tr><tr><td style="font-weight:bold;vertical-align:top;">applications_parent</td><td style="vertical-align:top;">:</td><td><div>/Users/rafihaque/Documents/cmps183/web2py</div></td></tr><tr><td style="font-weight:bold;vertical-align:top;">cmd_args</td><td style="vertical-align:top;">:</td><td><div><table></table></div></td></tr><tr><td style="font-weight:bold;vertical-align:top;">cmd_options</td><td style="vertical-align:top;">:</td><td><div>&lt;Values at 0x102cb6710: {&#x27;verbose&#x27;: False, &#x27;ip&#x27;: &#x27;127.0.0.1&#x27;, &#x27;debuglevel&#x27;: 30, &#x27;with_scheduler&#x27;: False, &#x27;shutdown_timeout&#x27;: 5, &#x27;taskbar&#x27;: False, &#x27;with_coverage&#x27;: False, &#x27;pid_filename&#x27;: &#x27;httpserver.pid&#x27;, &#x27;maxthreads&#x27;: None, &#x27;softcron&#x27;: False, &#x27;server_name&#x27;: &#x27;eduroam-169-233-233-236.ucsc.edu&#x27;, &#x27;bpython&#x27;: False, &#x27;nogui&#x27;: False, &#x27;port&#x27;: 8800, &#x27;print_errors&#x27;: True, &#x27;extcron&#x27;: False, &#x27;runcron&#x27;: False, &#x27;run_system_tests&#x27;: False, &#x27;test&#x27;: None, &#x27;folder&#x27;: &#x27;/Users/rafihaque/Documents/cmps183/web2py&#x27;, &#x27;config&#x27;: &#x27;&#x27;, &#x27;minthreads&#x27;: None, &#x27;shell&#x27;: None, &#x27;run&#x27;: &#x27;&#x27;, &#x27;log_filename&#x27;: &#x27;httpserver.log&#x27;, &#x27;profiler_dir&#x27;: None, &#x27;args&#x27;: [&#x27;&#x27;], &#x27;socket_timeout&#x27;: 5, &#x27;ssl_ca_certificate&#x27;: None, &#x27;scheduler&#x27;: None, &#x27;interfaces&#x27;: None, &#x27;ssl_private_key&#x27;: &#x27;&#x27;, &#x27;gae&#x27;: None, &#x27;password&#x27;: &#x27;******&#x27;, &#x27;request_queue_size&#x27;: 5, &#x27;ssl_certificate&#x27;: &#x27;&#x27;, &#x27;cronjob&#x27;: False, &#x27;numthreads&#x27;: None, &#x27;quiet&#x27;: False, &#x27;import_models&#x27;: False, &#x27;timeout&#x27;: 10, &#x27;plain&#x27;: False, &#x27;nobanner&#x27;: False}&gt;</div></td></tr><tr><td style="font-weight:bold;vertical-align:top;">db_sessions</td><td style="vertical-align:top;">:</td><td><div>set([&#x27;hicappo&#x27;])</div></td></tr><tr><td style="font-weight:bold;vertical-align:top;">debugging</td><td style="vertical-align:top;">:</td><td><div>False</div></td></tr><tr><td style="font-weight:bold;vertical-align:top;">gluon_parent</td><td style="vertical-align:top;">:</td><td><div>/Users/rafihaque/Documents/cmps183/web2py</div></td></tr><tr><td style="font-weight:bold;vertical-align:top;">http_accept</td><td style="vertical-align:top;">:</td><td><div>text/html,application/xhtml+xml,application/xml;q=0.9,image/webp,image/apng,*/*;q=0.8</div></td></tr><tr><td style="font-weight:bold;vertical-align:top;">http_accept_encoding</td><td style="vertical-align:top;">:</td><td><div>gzip, deflate, br</div></td></tr><tr><td style="font-weight:bold;vertical-align:top;">http_accept_language</td><td style="vertical-align:top;">:</td><td><div>en-US,en;q=0.9,bn;q=0.8</div></td></tr><tr><td style="font-weight:bold;vertical-align:top;">http_connection</td><td style="vertical-align:top;">:</td><td><div>keep-alive</div></td></tr><tr><td style="font-weight:bold;vertical-align:top;">http_cookie</td><td style="vertical-align:top;">:</td><td><div>session_id_hicappo=&quot;117:09052709-dc7d-46f8-a56a-9190c0d9b0cc&quot;; session_id_welcome=127.0.0.1-ba2a4c74-e850-40d1-9bac-e3e2ecb5f2cc</div></td></tr><tr><td style="font-weight:bold;vertical-align:top;">http_host</td><td style="vertical-align:top;">:</td><td><div>127.0.0.1:8800</div></td></tr><tr><td style="font-weight:bold;vertical-align:top;">http_upgrade_insecure_requests</td><td style="vertical-align:top;">:</td><td><div>1</div></td></tr><tr><td style="font-weight:bold;vertical-align:top;">http_user_agent</td><td style="vertical-align:top;">:</td><td><div>Mozilla/5.0 (Macintosh; Intel Mac OS X 10_12_6) AppleWebKit/537.36 (KHTML, like Gecko) Chrome/69.0.3497.100 Safari/537.36</div></td></tr><tr><td style="font-weight:bold;vertical-align:top;">is_jython</td><td style="vertical-align:top;">:</td><td><div>False</div></td></tr><tr><td style="font-weight:bold;vertical-align:top;">is_py2</td><td style="vertical-align:top;">:</td><td><div>True</div></td></tr><tr><td style="font-weight:bold;vertical-align:top;">is_pypy</td><td style="vertical-align:top;">:</td><td><div>False</div></td></tr><tr><td style="font-weight:bold;vertical-align:top;">is_source</td><td style="vertical-align:top;">:</td><td><div>True</div></td></tr><tr><td style="font-weight:bold;vertical-align:top;">local_hosts</td><td style="vertical-align:top;">:</td><td><div><table><tr><td><div>::1</div></td></tr><tr><td><div>eduroam-169-233-233-236.ucsc.edu</div></td></tr><tr><td><div>::ffff:127.0.0.1</div></td></tr><tr><td><div>127.0.0.1</div></td></tr><tr><td><div>169.233.233.236</div></td></tr></table></div></td></tr><tr><td style="font-weight:bold;vertical-align:top;">path_info</td><td style="vertical-align:top;">:</td><td><div>/hicappo</div></td></tr><tr><td style="font-weight:bold;vertical-align:top;">query_string</td><td style="vertical-align:top;">:</td><td><div></div></td></tr><tr><td style="font-weight:bold;vertical-align:top;">remote_addr</td><td style="vertical-align:top;">:</td><td><div>127.0.0.1</div></td></tr><tr><td style="font-weight:bold;vertical-align:top;">remote_port</td><td style="vertical-align:top;">:</td><td><div>63629</div></td></tr><tr><td style="font-weight:bold;vertical-align:top;">request_method</td><td style="vertical-align:top;">:</td><td><div>GET</div></td></tr><tr><td style="font-weight:bold;vertical-align:top;">request_uri</td><td style="vertical-align:top;">:</td><td><div>/hicappo</div></td></tr><tr><td style="font-weight:bold;vertical-align:top;">script_name</td><td style="vertical-align:top;">:</td><td><div></div></td></tr><tr><td style="font-weight:bold;vertical-align:top;">server_name</td><td style="vertical-align:top;">:</td><td><div>eduroam-169-233-233-236.ucsc.edu</div></td></tr><tr><td style="font-weight:bold;vertical-align:top;">server_port</td><td style="vertical-align:top;">:</td><td><div>8800</div></td></tr><tr><td style="font-weight:bold;vertical-align:top;">server_protocol</td><td style="vertical-align:top;">:</td><td><div>HTTP/1.1</div></td></tr><tr><td style="font-weight:bold;vertical-align:top;">server_software</td><td style="vertical-align:top;">:</td><td><div>Rocket 1.2.6</div></td></tr><tr><td style="font-weight:bold;vertical-align:top;">web2py_path</td><td style="vertical-align:top;">:</td><td><div>/Users/rafihaque/Documents/cmps183/web2py</div></td></tr><tr><td style="font-weight:bold;vertical-align:top;">web2py_version</td><td style="vertical-align:top;">:</td><td><div>2.16.1-stable+timestamp.2017.11.14.05.54.25</div></td></tr><tr><td style="font-weight:bold;vertical-align:top;">wsgi.errors</td><td style="vertical-align:top;">:</td><td><div>&lt;open file &#x27;&lt;stderr&gt;&#x27;, mode &#x27;w&#x27; at 0x1014071e0&gt;</div></td></tr><tr><td style="font-weight:bold;vertical-align:top;">wsgi.file_wrapper</td><td style="vertical-align:top;">:</td><td><div>&lt;class wsgiref.util.FileWrapper at 0x102c7c2c0&gt;</div></td></tr><tr><td style="font-weight:bold;vertical-align:top;">wsgi.input</td><td style="vertical-align:top;">:</td><td><div>&lt;socket._fileobject object at 0x103ad6950&gt;</div></td></tr><tr><td style="font-weight:bold;vertical-align:top;">wsgi.multiprocess</td><td style="vertical-align:top;">:</td><td><div>False</div></td></tr><tr><td style="font-weight:bold;vertical-align:top;">wsgi.multithread</td><td style="vertical-align:top;">:</td><td><div>True</div></td></tr><tr><td style="font-weight:bold;vertical-align:top;">wsgi.run_once</td><td style="vertical-align:top;">:</td><td><div>False</div></td></tr><tr><td style="font-weight:bold;vertical-align:top;">wsgi.url_scheme</td><td style="vertical-align:top;">:</td><td><div>http</div></td></tr><tr><td style="font-weight:bold;vertical-align:top;">wsgi.version</td><td style="vertical-align:top;">:</td><td><div><table><tr><td><div>1</div></td></tr><tr><td><div>0</div></td></tr></table></div></td></tr><tr><td style="font-weight:bold;vertical-align:top;">wsgi_errors</td><td style="vertical-align:top;">:</td><td><div>&lt;open file &#x27;&lt;stderr&gt;&#x27;, mode &#x27;w&#x27; at 0x1014071e0&gt;</div></td></tr><tr><td style="font-weight:bold;vertical-align:top;">wsgi_file_wrapper</td><td style="vertical-align:top;">:</td><td><div>&lt;class wsgiref.util.FileWrapper at 0x102c7c2c0&gt;</div></td></tr><tr><td style="font-weight:bold;vertical-align:top;">wsgi_input</td><td style="vertical-align:top;">:</td><td><div>&lt;socket._fileobject object at 0x103ad6950&gt;</div></td></tr><tr><td style="font-weight:bold;vertical-align:top;">wsgi_multiprocess</td><td style="vertical-align:top;">:</td><td><div>False</div></td></tr><tr><td style="font-weight:bold;vertical-align:top;">wsgi_multithread</td><td style="vertical-align:top;">:</td><td><div>True</div></td></tr><tr><td style="font-weight:bold;vertical-align:top;">wsgi_run_once</td><td style="vertical-align:top;">:</td><td><div>False</div></td></tr><tr><td style="font-weight:bold;vertical-align:top;">wsgi_url_scheme</td><td style="vertical-align:top;">:</td><td><div>http</div></td></tr><tr><td style="font-weight:bold;vertical-align:top;">wsgi_version</td><td style="vertical-align:top;">:</td><td><div><table><tr><td><div>1</div></td></tr><tr><td><div>0</div></td></tr></table></div></td></tr></table></div></td></tr><tr><td style="font-weight:bold;vertical-align:top;">extension</td><td style="vertical-align:top;">:</td><td><div>html</div></td></tr><tr><td style="font-weight:bold;vertical-align:top;">folder</td><td style="vertical-align:top;">:</td><td><div>/Users/rafihaque/Documents/cmps183/web2py/applications/hicappo/</div></td></tr><tr><td style="font-weight:bold;vertical-align:top;">function</td><td style="vertical-align:top;">:</td><td><div>index</div></td></tr><tr><td style="font-weight:bold;vertical-align:top;">global_settings</td><td style="vertical-align:top;">:</td><td><div><table><tr><td style="font-weight:bold;vertical-align:top;">app_folders</td><td style="vertical-align:top;">:</td><td><div>set([&#x27;/Users/rafihaque/Documents/cmps183/web2py/applications/welcome/&#x27;, &#x27;/Users/rafihaque/Documents/cmps183/web2py/applications/hicappo/&#x27;])</div></td></tr><tr><td style="font-weight:bold;vertical-align:top;">applications_parent</td><td style="vertical-align:top;">:</td><td><div>/Users/rafihaque/Documents/cmps183/web2py</div></td></tr><tr><td style="font-weight:bold;vertical-align:top;">cmd_args</td><td style="vertical-align:top;">:</td><td><div><table></table></div></td></tr><tr><td style="font-weight:bold;vertical-align:top;">cmd_options</td><td style="vertical-align:top;">:</td><td><div>&lt;Values at 0x102cb6710: {&#x27;verbose&#x27;: False, &#x27;ip&#x27;: &#x27;127.0.0.1&#x27;, &#x27;debuglevel&#x27;: 30, &#x27;with_scheduler&#x27;: False, &#x27;shutdown_timeout&#x27;: 5, &#x27;taskbar&#x27;: False, &#x27;with_coverage&#x27;: False, &#x27;pid_filename&#x27;: &#x27;httpserver.pid&#x27;, &#x27;maxthreads&#x27;: None, &#x27;softcron&#x27;: False, &#x27;server_name&#x27;: &#x27;eduroam-169-233-233-236.ucsc.edu&#x27;, &#x27;bpython&#x27;: False, &#x27;nogui&#x27;: False, &#x27;port&#x27;: 8800, &#x27;print_errors&#x27;: True, &#x27;extcron&#x27;: False, &#x27;runcron&#x27;: False, &#x27;run_system_tests&#x27;: False, &#x27;test&#x27;: None, &#x27;folder&#x27;: &#x27;/Users/rafihaque/Documents/cmps183/web2py&#x27;, &#x27;config&#x27;: &#x27;&#x27;, &#x27;minthreads&#x27;: None, &#x27;shell&#x27;: None, &#x27;run&#x27;: &#x27;&#x27;, &#x27;log_filename&#x27;: &#x27;httpserver.log&#x27;, &#x27;profiler_dir&#x27;: None, &#x27;args&#x27;: [&#x27;&#x27;], &#x27;socket_timeout&#x27;: 5, &#x27;ssl_ca_certificate&#x27;: None, &#x27;scheduler&#x27;: None, &#x27;interfaces&#x27;: None, &#x27;ssl_private_key&#x27;: &#x27;&#x27;, &#x27;gae&#x27;: None, &#x27;password&#x27;: &#x27;******&#x27;, &#x27;request_queue_size&#x27;: 5, &#x27;ssl_certificate&#x27;: &#x27;&#x27;, &#x27;cronjob&#x27;: False, &#x27;numthreads&#x27;: None, &#x27;quiet&#x27;: False, &#x27;import_models&#x27;: False, &#x27;timeout&#x27;: 10, &#x27;plain&#x27;: False, &#x27;nobanner&#x27;: False}&gt;</div></td></tr><tr><td style="font-weight:bold;vertical-align:top;">db_sessions</td><td style="vertical-align:top;">:</td><td><div>set([&#x27;hicappo&#x27;])</div></td></tr><tr><td style="font-weight:bold;vertical-align:top;">debugging</td><td style="vertical-align:top;">:</td><td><div>False</div></td></tr><tr><td style="font-weight:bold;vertical-align:top;">gluon_parent</td><td style="vertical-align:top;">:</td><td><div>/Users/rafihaque/Documents/cmps183/web2py</div></td></tr><tr><td style="font-weight:bold;vertical-align:top;">is_jython</td><td style="vertical-align:top;">:</td><td><div>False</div></td></tr><tr><td style="font-weight:bold;vertical-align:top;">is_py2</td><td style="vertical-align:top;">:</td><td><div>True</div></td></tr><tr><td style="font-weight:bold;vertical-align:top;">is_pypy</td><td style="vertical-align:top;">:</td><td><div>False</div></td></tr><tr><td style="font-weight:bold;vertical-align:top;">is_source</td><td style="vertical-align:top;">:</td><td><div>True</div></td></tr><tr><td style="font-weight:bold;vertical-align:top;">local_hosts</td><td style="vertical-align:top;">:</td><td><div><table><tr><td><div>::1</div></td></tr><tr><td><div>eduroam-169-233-233-236.ucsc.edu</div></td></tr><tr><td><div>::ffff:127.0.0.1</div></td></tr><tr><td><div>127.0.0.1</div></td></tr><tr><td><div>169.233.233.236</div></td></tr></table></div></td></tr><tr><td style="font-weight:bold;vertical-align:top;">web2py_version</td><td style="vertical-align:top;">:</td><td><div>2.16.1-stable+timestamp.2017.11.14.05.54.25</div></td></tr></table></div></td></tr><tr><td style="font-weight:bold;vertical-align:top;">is_https</td><td style="vertical-align:top;">:</td><td><div>False</div></td></tr><tr><td style="font-weight:bold;vertical-align:top;">is_local</td><td style="vertical-align:top;">:</td><td><div>True</div></td></tr><tr><td style="font-weight:bold;vertical-align:top;">is_restful</td><td style="vertical-align:top;">:</td><td><div>False</div></td></tr><tr><td style="font-weight:bold;vertical-align:top;">is_scheduler</td><td style="vertical-align:top;">:</td><td><div>False</div></td></tr><tr><td style="font-weight:bold;vertical-align:top;">is_shell</td><td style="vertical-align:top;">:</td><td><div>False</div></td></tr><tr><td style="font-weight:bold;vertical-align:top;">now</td><td style="vertical-align:top;">:</td><td><div>datetime.datetime(2018, 9, 28, 10, 6, 51, 675662)</div></td></tr><tr><td style="font-weight:bold;vertical-align:top;">raw_args</td><td style="vertical-align:top;">:</td><td><div></div></td></tr><tr><td style="font-weight:bold;vertical-align:top;">raw_extension</td><td style="vertical-align:top;">:</td><td><div>None</div></td></tr><tr><td style="font-weight:bold;vertical-align:top;">url</td><td style="vertical-align:top;">:</td><td><div>/hicappo</div></td></tr><tr><td style="font-weight:bold;vertical-align:top;">utcnow</td><td style="vertical-align:top;">:</td><td><div>datetime.datetime(2018, 9, 28, 17, 6, 51, 675670)</div></td></tr><tr><td style="font-weight:bold;vertical-align:top;">wsgi</td><td style="vertical-align:top;">:</td><td><div>&lt;gluon.main.LazyWSGI object at 0x103b21890&gt;</div></td></tr></table></div>'
tRp64
sS'frames'
p65
(lp66
(dp67
S'file'
p68
S'/Users/rafihaque/Documents/cmps183/web2py/gluon/restricted.py'
p69
sS'dump'
p70
(dp71
S'environment'
p72
S"{'A': <class 'gluon.html.A'>, 'ANY_OF': <class 'gluon.validators.ANY_OF'>, 'ASSIGNJS': <function ASSIGNJS>, 'AppConfig': <function AppConfig>, 'Auth': <class 'gluon.tools.Auth'>, 'B': <class 'gluon.html.B'>, 'BEAUTIFY': <class 'gluon.html.BEAUTIFY'>, 'BODY': <class 'gluon.html.BODY'>, 'BR': <class 'gluon.html.BR'>, 'BUTTON': <class 'gluon.html.BUTTON'>, ...}"
p73
sS'ccode'
p74
S'<code object <module> at 0x103bea3b0, file "/Use...y/applications/hicappo/models/tables.py", line 9>'
p75
ssS'lnum'
p76
I219
sS'lines'
p77
(dp78
I214
S'    if environment is None:'
p79
sI215
S'        environment = {}'
p80
sI216
S"    environment['__file__'] = layer"
p81
sI217
S"    environment['__name__'] = '__restricted__'"
p82
sI218
S'    try:'
p83
sI219
S'        exec(ccode, environment)'
p84
sI220
S'    except HTTP:'
p85
sI221
S'        raise'
p86
sI222
S'    except RestrictedError:'
p87
sI223
S'        # do not encapsulate (obfuscate) the original RestrictedError'
p88
ssS'call'
p89
S'(ccode=<code object <module> at 0x103bea3b0, file "/Use...y/applications/hicappo/models/tables.py", line 9>, environment={\'A\': <class \'gluon.html.A\'>, \'ANY_OF\': <class \'gluon.validators.ANY_OF\'>, \'ASSIGNJS\': <function ASSIGNJS>, \'AppConfig\': <function AppConfig>, \'Auth\': <class \'gluon.tools.Auth\'>, \'B\': <class \'gluon.html.B\'>, \'BEAUTIFY\': <class \'gluon.html.BEAUTIFY\'>, \'BODY\': <class \'gluon.html.BODY\'>, \'BR\': <class \'gluon.html.BR\'>, \'BUTTON\': <class \'gluon.html.BUTTON\'>, ...}, layer=\'/Users/rafihaque/Documents/cmps183/web2py/applications/hicappo/models/tables.py\', scode=<code object <module> at 0x103bea3b0, file "/Use...y/applications/hicappo/models/tables.py", line 9>)'
p90
sS'func'
p91
S'restricted'
p92
sa(dp93
g68
S'/Users/rafihaque/Documents/cmps183/web2py/applications/hicappo/models/tables.py'
p94
sg70
(dp95
S'Field'
p96
S"<class 'pydal.objects.Field'>"
p97
ssg76
I67
sg77
(dp98
I64
S"db.define_table('reply_maintenance',"
p99
sI65
S"    Field('maintenance_id', 'reference maintenance'),"
p100
sI66
S"    Field('user_id','reference auth_user'),"
p101
sI67
S"    Field('message_texts')"
p102
sI68
S')'
sI69
S''
sI70
S''
sI71
S''
sI62
S''
sI63
S''
ssg89
S'()'
p103
sg91
S'<module>'
p104
sa(dp105
g68
S'/Users/rafihaque/Documents/cmps183/web2py/gluon/packages/dal/pydal/base.py'
p106
sg70
(dp107
S'fields'
p108
S'(<pydal.objects.Field object>, <pydal.objects.Field object>, <pydal.objects.Field object>)'
p109
sS'self'
p110
S'<DAL uri="sqlite://storage.sqlite">'
p111
sS'args'
p112
g21
sS'tablename'
p113
S"'reply_maintenance'"
p114
sS'table'
p115
S'undefined'
p116
sS'self.lazy_define_table'
p117
S'<bound method DAL.lazy_define_table of <DAL uri="sqlite://storage.sqlite">>'
p118
ssg76
I586
sg77
(dp119
I581
S'                                  (tablename, invalid_args))'
p120
sI582
S'        if self._lazy_tables and tablename not in self._LAZY_TABLES:'
p121
sI583
S'            self._LAZY_TABLES[tablename] = (tablename, fields, args)'
p122
sI584
S'            table = None'
p123
sI585
S'        else:'
p124
sI586
S'            table = self.lazy_define_table(tablename, *fields, **args)'
p125
sI587
S'        if tablename not in self.tables:'
p126
sI588
S'            self.tables.append(tablename)'
p127
sI589
S'        return table'
p128
sI590
S''
ssg89
S'(self=<DAL uri="sqlite://storage.sqlite">, tablename=\'reply_maintenance\', *fields=(<pydal.objects.Field object>, <pydal.objects.Field object>, <pydal.objects.Field object>), **args={})'
p129
sg91
S'define_table'
p130
sa(dp131
g68
S'/Users/rafihaque/Documents/cmps183/web2py/gluon/packages/dal/pydal/base.py'
p132
sg70
(dp133
S'polymodel'
p134
S'None'
p135
ssg76
I620
sg77
(dp136
I615
S'            try:'
p137
sI616
S'                GLOBAL_LOCKER.acquire()'
p138
sI617
S'                self._adapter.create_table('
p139
sI618
S'                    table, migrate=migrate,'
p140
sI619
S'                    fake_migrate=fake_migrate,'
p141
sI620
S'                    polymodel=polymodel)'
p142
sI621
S'            finally:'
p143
sI622
S'                GLOBAL_LOCKER.release()'
p144
sI623
S'        else:'
p145
sI624
S'            table._dbt = None'
p146
ssg89
S'(self=<DAL uri="sqlite://storage.sqlite">, tablename=\'reply_maintenance\', *fields=(<pydal.objects.Field object>, <pydal.objects.Field object>, <pydal.objects.Field object>), **args={})'
p147
sg91
S'lazy_define_table'
p148
sa(dp149
g68
S'/Users/rafihaque/Documents/cmps183/web2py/gluon/packages/dal/pydal/adapters/base.py'
p150
sg70
(dp151
S'self'
p152
S'<pydal.adapters.sqlite.SQLite object>'
p153
sS'args'
p154
S'(<Table reply_maintenance (id, maintenance_id, user_id, message_texts)>,)'
p155
sS'self.migrator'
p156
S'<pydal.migrator.Migrator object>'
p157
sS'self.migrator.create_table'
p158
S'<bound method Migrator.create_table of <pydal.migrator.Migrator object>>'
p159
sS'kwargs'
p160
S"{'fake_migrate': False, 'migrate': True, 'polymodel': None}"
p161
ssg76
I797
sg77
(dp162
I800
S'        super(SQLAdapter, self)._drop_table_cleanup(table)'
p163
sI801
S'        if table._dbt:'
p164
sI792
S''
sI793
S'    def bulk_insert(self, table, items):'
p165
sI794
S'        return [self.insert(table, item) for item in items]'
p166
sI795
S''
sI796
S'    def create_table(self, *args, **kwargs):'
p167
sI797
S'        return self.migrator.create_table(*args, **kwargs)'
p168
sI798
S''
sI799
S'    def _drop_table_cleanup(self, table):'
p169
ssg89
S"(self=<pydal.adapters.sqlite.SQLite object>, *args=(<Table reply_maintenance (id, maintenance_id, user_id, message_texts)>,), **kwargs={'fake_migrate': False, 'migrate': True, 'polymodel': None})"
p170
sg91
S'create_table'
p171
sa(dp172
g68
S'/Users/rafihaque/Documents/cmps183/web2py/gluon/packages/dal/pydal/migrator.py'
p173
sg70
(dp174
S'query'
p175
S'\'CREATE TABLE "reply_maintenance"(\\n    "id" INTEG...ELETE CASCADE  ,\\n    "message_texts" CHAR(512)\\n);\''
p176
sS'self'
p177
S'<pydal.migrator.Migrator object>'
p178
sS'self.adapter'
p179
S'<pydal.adapters.sqlite.SQLite object>'
p180
sS'self.adapter.create_sequence_and_triggers'
p181
S'<bound method SQLite.create_sequence_and_triggers of <pydal.adapters.sqlite.SQLite object>>'
p182
sS'table'
p183
S'<Table reply_maintenance (id, maintenance_id, user_id, message_texts)>'
p184
ssg76
I277
sg77
(dp185
I272
S'            if table._dbt:'
p186
sI273
S"                self.log('timestamp: %s\\n%s\\n'"
p187
sI274
S'                         % (datetime.datetime.today().isoformat(),'
p188
sI275
S'                            query), table)'
p189
sI276
S'            if not fake_migrate:'
p190
sI277
S'                self.adapter.create_sequence_and_triggers(query, table)'
p191
sI278
S'                db.commit()'
p192
sI279
S'                # Postgres geom fields are added now,'
p193
sI280
S'                # after the table has been created'
p194
sI281
S'                for query in postcreation_fields:'
p195
ssg89
S'(self=<pydal.migrator.Migrator object>, table=<Table reply_maintenance (id, maintenance_id, user_id, message_texts)>, migrate=True, fake_migrate=False, polymodel=None)'
p196
sg91
g171
sa(dp197
g68
S'/Users/rafihaque/Documents/cmps183/web2py/gluon/packages/dal/pydal/adapters/base.py'
p198
sg70
(dp199
S'query'
p200
S'\'CREATE TABLE "reply_maintenance"(\\n    "id" INTEG...ELETE CASCADE  ,\\n    "message_texts" CHAR(512)\\n);\''
p201
sS'self'
p202
S'<pydal.adapters.sqlite.SQLite object>'
p203
sS'self.execute'
p204
S'<bound method SQLite.wrap of <pydal.adapters.sqlite.SQLite object>>'
p205
ssg76
I880
sg77
(dp206
I875
S'    @with_connection'
p207
sI876
S'    def rollback_prepared(self, key):'
p208
sI877
S'        self.connection.rollback()'
p209
sI878
S''
sI879
S'    def create_sequence_and_triggers(self, query, table, **args):'
p210
sI880
S'        self.execute(query)'
p211
sI881
S''
sI882
S'    def sqlsafe_table(self, tablename, original_tablename=None):'
p212
sI883
S'        if original_tablename is not None:'
p213
sI884
S'            return self.dialect.alias(original_tablename, tablename)'
p214
ssg89
S'(self=<pydal.adapters.sqlite.SQLite object>, query=\'CREATE TABLE "reply_maintenance"(\\n    "id" INTEG...ELETE CASCADE  ,\\n    "message_texts" CHAR(512)\\n);\', table=<Table reply_maintenance (id, maintenance_id, user_id, message_texts)>, **args={})'
p215
sg91
S'create_sequence_and_triggers'
p216
sa(dp217
g68
S'/Users/rafihaque/Documents/cmps183/web2py/gluon/packages/dal/pydal/adapters/__init__.py'
p218
sg70
(dp219
S'kwargs'
p220
g21
sS'args'
p221
S'(<pydal.adapters.sqlite.SQLite object>, \'CREATE TABLE "reply_maintenance"(\\n    "id" INTEG...ELETE CASCADE  ,\\n    "message_texts" CHAR(512)\\n);\')'
p222
sS'f'
S'<function execute>'
p223
ssg76
I67
sg77
(dp224
I64
S'            if len(args) > 1:'
p225
sI65
S'                raise ValueError(args[1])'
p226
sI66
S"            raise RuntimeError('no connection available')"
p227
sI67
S'        return f(*args, **kwargs)'
p228
sI68
S'    return wrap'
p229
sI69
S''
sI70
S''
sI71
S'from .base import SQLAdapter, NoSQLAdapter'
p230
sI62
S'    def wrap(*args, **kwargs):'
p231
sI63
S'        if not args[0].connection:'
p232
ssg89
S'(*args=(<pydal.adapters.sqlite.SQLite object>, \'CREATE TABLE "reply_maintenance"(\\n    "id" INTEG...ELETE CASCADE  ,\\n    "message_texts" CHAR(512)\\n);\'), **kwargs={})'
p233
sg91
S'wrap'
p234
sa(dp235
g68
S'/Users/rafihaque/Documents/cmps183/web2py/gluon/packages/dal/pydal/adapters/base.py'
p236
sg70
(dp237
S'rv'
p238
g116
sS'self'
p239
S'<pydal.adapters.sqlite.SQLite object>'
p240
sS'args'
p241
S'(\'CREATE TABLE "reply_maintenance"(\\n    "id" INTEG...ELETE CASCADE  ,\\n    "message_texts" CHAR(512)\\n);\',)'
p242
sS'self.cursor'
p243
S'<sqlite3.Cursor object>'
p244
sS'command'
p245
S'\'CREATE TABLE "reply_maintenance"(\\n    "id" INTEG...ELETE CASCADE  ,\\n    "message_texts" CHAR(512)\\n);\''
p246
sS'self.cursor.execute'
p247
S'<built-in method execute of sqlite3.Cursor object>'
p248
sS'kwargs'
p249
g21
ssg76
I412
sg77
(dp250
I416
S''
sI407
S'    def execute(self, *args, **kwargs):'
p251
sI408
S'        command = self.filter_sql_command(args[0])'
p252
sI409
S'        handlers = self._build_handlers_for_execution()'
p253
sI410
S'        for handler in handlers:'
p254
sI411
S'            handler.before_execute(command)'
p255
sI412
S'        rv = self.cursor.execute(command, *args[1:], **kwargs)'
p256
sI413
S'        for handler in handlers:'
p257
sI414
S'            handler.after_execute(command)'
p258
sI415
S'        return rv'
p259
ssg89
S'(self=<pydal.adapters.sqlite.SQLite object>, *args=(\'CREATE TABLE "reply_maintenance"(\\n    "id" INTEG...ELETE CASCADE  ,\\n    "message_texts" CHAR(512)\\n);\',), **kwargs={})'
p260
sg91
S'execute'
p261
sasS'pyver'
p262
S'Python 2.7.14: /anaconda2/bin/python (prefix: /anaconda2)'
p263
sS'session'
p264
g63
(S's\x1a\x00\x00\x00<div><table></table></div>'
tRp265
sS'etype'
p266
S"<class 'sqlite3.OperationalError'>"
p267
sS'date'
p268
S'Fri Sep 28 10:06:51 2018'
p269
sS'response'
p270
g63
(S's\x8a \x00\x00<div><table><tr><td style="font-weight:bold;vertical-align:top;">body</td><td style="vertical-align:top;">:</td><td><div>&lt;cStringIO.StringO object at 0x103b15b58&gt;</div></td></tr><tr><td style="font-weight:bold;vertical-align:top;">cookies</td><td style="vertical-align:top;">:</td><td><div><table><tr><td style="font-weight:bold;vertical-align:top;">session_id_hicappo</td><td style="vertical-align:top;">:</td><td><div>127.0.0.1-32d0d546-4756-4392-ad21-6a7a86cac0d5<table><tr><td style="font-weight:bold;vertical-align:top;">comment</td><td style="vertical-align:top;">:</td><td><div></div></td></tr><tr><td style="font-weight:bold;vertical-align:top;">domain</td><td style="vertical-align:top;">:</td><td><div></div></td></tr><tr><td style="font-weight:bold;vertical-align:top;">expires</td><td style="vertical-align:top;">:</td><td><div></div></td></tr><tr><td style="font-weight:bold;vertical-align:top;">httponly</td><td style="vertical-align:top;">:</td><td><div></div></td></tr><tr><td style="font-weight:bold;vertical-align:top;">max-age</td><td style="vertical-align:top;">:</td><td><div></div></td></tr><tr><td style="font-weight:bold;vertical-align:top;">path</td><td style="vertical-align:top;">:</td><td><div>/</div></td></tr><tr><td style="font-weight:bold;vertical-align:top;">secure</td><td style="vertical-align:top;">:</td><td><div></div></td></tr><tr><td style="font-weight:bold;vertical-align:top;">version</td><td style="vertical-align:top;">:</td><td><div></div></td></tr></table></div></td></tr></table></div></td></tr><tr><td style="font-weight:bold;vertical-align:top;">delimiters</td><td style="vertical-align:top;">:</td><td><div><table><tr><td><div>{{</div></td></tr><tr><td><div>}}</div></td></tr></table></div></td></tr><tr><td style="font-weight:bold;vertical-align:top;">files</td><td style="vertical-align:top;">:</td><td><div><table></table></div></td></tr><tr><td style="font-weight:bold;vertical-align:top;">flash</td><td style="vertical-align:top;">:</td><td><div></div></td></tr><tr><td style="font-weight:bold;vertical-align:top;">form_label_separator</td><td style="vertical-align:top;">:</td><td><div></div></td></tr><tr><td style="font-weight:bold;vertical-align:top;">formstyle</td><td style="vertical-align:top;">:</td><td><div>bootstrap3_inline</div></td></tr><tr><td style="font-weight:bold;vertical-align:top;">generic_patterns</td><td style="vertical-align:top;">:</td><td><div><table><tr><td><div>*</div></td></tr></table></div></td></tr><tr><td style="font-weight:bold;vertical-align:top;">google_analytics_id</td><td style="vertical-align:top;">:</td><td><div>None</div></td></tr><tr><td style="font-weight:bold;vertical-align:top;">headers</td><td style="vertical-align:top;">:</td><td><div><table><tr><td style="font-weight:bold;vertical-align:top;">X-Powered-By</td><td style="vertical-align:top;">:</td><td><div>web2py</div></td></tr></table></div></td></tr><tr><td style="font-weight:bold;vertical-align:top;">logo</td><td style="vertical-align:top;">:</td><td><div><a class="navbar-brand" href="http://www.web2py.com/" id="web2py-logo"><b>web<span>2</span>py</b>&trade;&nbsp;</a></div></td></tr><tr><td style="font-weight:bold;vertical-align:top;">menu</td><td style="vertical-align:top;">:</td><td><div><table><tr><td><div><table><tr><td><div>Home</div></td></tr><tr><td><div>False</div></td></tr><tr><td><div>/hicappo/default/index</div></td></tr><tr><td><div><table></table></div></td></tr></table></div></td></tr><tr><td><div><table><tr><td><div>My Sites</div></td></tr><tr><td><div>False</div></td></tr><tr><td><div>/admin/default/site</div></td></tr></table></div></td></tr><tr><td><div><table><tr><td><div>Sample Menu 1</div></td></tr><tr><td><div>False</div></td></tr><tr><td><div>#</div></td></tr><tr><td><div><table><tr><td><div><table><tr><td><div>Entry1</div></td></tr><tr><td><div>False</div></td></tr><tr><td><div>/hicappo/default/entry1</div></td></tr></table></div></td></tr><tr><td><div><table><tr><td><div>Entry2</div></td></tr><tr><td><div>False</div></td></tr><tr><td><div>/hicappo/default/entry2</div></td></tr></table></div></td></tr></table></div></td></tr></table></div></td></tr><tr><td><div><table><tr><td><div>Sample Menu 2</div></td></tr><tr><td><div>False</div></td></tr><tr><td><div>/hicappo/default/index</div></td></tr></table></div></td></tr></table></div></td></tr><tr><td style="font-weight:bold;vertical-align:top;">meta</td><td style="vertical-align:top;">:</td><td><div><table><tr><td style="font-weight:bold;vertical-align:top;">author</td><td style="vertical-align:top;">:</td><td><div>Your Name &lt;you@example.com&gt;</div></td></tr><tr><td style="font-weight:bold;vertical-align:top;">description</td><td style="vertical-align:top;">:</td><td><div>a cool new app</div></td></tr><tr><td style="font-weight:bold;vertical-align:top;">generator</td><td style="vertical-align:top;">:</td><td><div>Web2py Web Framework</div></td></tr><tr><td style="font-weight:bold;vertical-align:top;">keywords</td><td style="vertical-align:top;">:</td><td><div><table><tr><td><div>web2py</div></td></tr><tr><td><div>python</div></td></tr><tr><td><div>framework</div></td></tr></table></div></td></tr></table></div></td></tr><tr><td style="font-weight:bold;vertical-align:top;">models_to_run</td><td style="vertical-align:top;">:</td><td><div><table><tr><td><div>^\\w+\\.py$</div></td></tr><tr><td><div>^default/\\w+\\.py$</div></td></tr><tr><td><div>^default/index/\\w+\\.py$</div></td></tr></table></div></td></tr><tr><td style="font-weight:bold;vertical-align:top;">postprocessing</td><td style="vertical-align:top;">:</td><td><div><table></table></div></td></tr><tr><td style="font-weight:bold;vertical-align:top;">session_client</td><td style="vertical-align:top;">:</td><td><div>127.0.0.1</div></td></tr><tr><td style="font-weight:bold;vertical-align:top;">session_cookie_compression_level</td><td style="vertical-align:top;">:</td><td><div>None</div></td></tr><tr><td style="font-weight:bold;vertical-align:top;">session_cookie_expires</td><td style="vertical-align:top;">:</td><td><div>None</div></td></tr><tr><td style="font-weight:bold;vertical-align:top;">session_data_name</td><td style="vertical-align:top;">:</td><td><div>session_data_hicappo</div></td></tr><tr><td style="font-weight:bold;vertical-align:top;">session_db_table</td><td style="vertical-align:top;">:</td><td><div>&lt;Table web2py_session_hicappo (id, locked, client_ip, created_datetime, modified_datetime, unique_key, session_data)&gt;</div></td></tr><tr><td style="font-weight:bold;vertical-align:top;">session_file</td><td style="vertical-align:top;">:</td><td><div>None</div></td></tr><tr><td style="font-weight:bold;vertical-align:top;">session_filename</td><td style="vertical-align:top;">:</td><td><div>/Users/rafihaque/Documents/cmps183/web2py/applications/hicappo/sessions/127.0.0.1-32d0d546-4756-4392-ad21-6a7a86cac0d5</div></td></tr><tr><td style="font-weight:bold;vertical-align:top;">session_hash</td><td style="vertical-align:top;">:</td><td><div>c0762cbf4baf7f9af97c051e7fcb8083</div></td></tr><tr><td style="font-weight:bold;vertical-align:top;">session_id</td><td style="vertical-align:top;">:</td><td><div>None</div></td></tr><tr><td style="font-weight:bold;vertical-align:top;">session_id_name</td><td style="vertical-align:top;">:</td><td><div>session_id_hicappo</div></td></tr><tr><td style="font-weight:bold;vertical-align:top;">session_masterapp</td><td style="vertical-align:top;">:</td><td><div>hicappo</div></td></tr><tr><td style="font-weight:bold;vertical-align:top;">session_new</td><td style="vertical-align:top;">:</td><td><div>True</div></td></tr><tr><td style="font-weight:bold;vertical-align:top;">session_storage_type</td><td style="vertical-align:top;">:</td><td><div>db</div></td></tr><tr><td style="font-weight:bold;vertical-align:top;">status</td><td style="vertical-align:top;">:</td><td><div>200</div></td></tr><tr><td style="font-weight:bold;vertical-align:top;">subtitle</td><td style="vertical-align:top;">:</td><td><div></div></td></tr><tr><td style="font-weight:bold;vertical-align:top;">title</td><td style="vertical-align:top;">:</td><td><div>Hicappo</div></td></tr><tr><td style="font-weight:bold;vertical-align:top;">view</td><td style="vertical-align:top;">:</td><td><div>default/index.html</div></td></tr></table></div>'
tRp271
sS'locals'
p272
(dp273
S'handlers'
p274
S'[<pydal.helpers.classes.TimingHandler object>]'
p275
sS'self'
p276
S'<pydal.adapters.sqlite.SQLite object>'
p277
sg48
S'(\'CREATE TABLE "reply_maintenance"(\\n    "id" INTEG...ELETE CASCADE  ,\\n    "message_texts" CHAR(512)\\n);\',)'
p278
sS'handler'
p279
S'<pydal.helpers.classes.TimingHandler object>'
p280
sS'command'
p281
S'\'CREATE TABLE "reply_maintenance"(\\n    "id" INTEG...ELETE CASCADE  ,\\n    "message_texts" CHAR(512)\\n);\''
p282
sS'kwargs'
p283
g21
sssS'traceback'
p284
S'Traceback (most recent call last):\n  File "/Users/rafihaque/Documents/cmps183/web2py/gluon/restricted.py", line 219, in restricted\n    exec(ccode, environment)\n  File "/Users/rafihaque/Documents/cmps183/web2py/applications/hicappo/models/tables.py", line 67, in <module>\n    Field(\'message_texts\')\n  File "/Users/rafihaque/Documents/cmps183/web2py/gluon/packages/dal/pydal/base.py", line 586, in define_table\n    table = self.lazy_define_table(tablename, *fields, **args)\n  File "/Users/rafihaque/Documents/cmps183/web2py/gluon/packages/dal/pydal/base.py", line 620, in lazy_define_table\n    polymodel=polymodel)\n  File "/Users/rafihaque/Documents/cmps183/web2py/gluon/packages/dal/pydal/adapters/base.py", line 797, in create_table\n    return self.migrator.create_table(*args, **kwargs)\n  File "/Users/rafihaque/Documents/cmps183/web2py/gluon/packages/dal/pydal/migrator.py", line 277, in create_table\n    self.adapter.create_sequence_and_triggers(query, table)\n  File "/Users/rafihaque/Documents/cmps183/web2py/gluon/packages/dal/pydal/adapters/base.py", line 880, in create_sequence_and_triggers\n    self.execute(query)\n  File "/Users/rafihaque/Documents/cmps183/web2py/gluon/packages/dal/pydal/adapters/__init__.py", line 67, in wrap\n    return f(*args, **kwargs)\n  File "/Users/rafihaque/Documents/cmps183/web2py/gluon/packages/dal/pydal/adapters/base.py", line 412, in execute\n    rv = self.cursor.execute(command, *args[1:], **kwargs)\nOperationalError: table "reply_maintenance" already exists\n'
p285
s.