(dp1
S'output'
p2
S"<type 'exceptions.AttributeError'> 'NoneType' object has no attribute 'id'"
p3
sS'layer'
p4
S'/Users/rafihaque/Documents/cmps183/web2py/applications/hicappo/controllers/api.py'
p5
sS'code'
p6
S'<code object <module> at 0x10e61e5b0, file "/Users/rafihaque/Documents/cmps183/web2py/applications/hicappo/controllers/api.py", line 2>'
p7
sS'snapshot'
p8
(dp9
sS'traceback'
p10
S'Traceback (most recent call last):\n  File "/Users/rafihaque/Documents/cmps183/web2py/gluon/restricted.py", line 219, in restricted\n    exec(ccode, environment)\n  File "/Users/rafihaque/Documents/cmps183/web2py/applications/hicappo/controllers/api.py", line 242, in <module>\n  File "/Users/rafihaque/Documents/cmps183/web2py/gluon/globals.py", line 419, in <lambda>\n    self._caller = lambda f: f()\n  File "/Users/rafihaque/Documents/cmps183/web2py/gluon/tools.py", line 3982, in f\n    return action(*a, **b)\n  File "/Users/rafihaque/Documents/cmps183/web2py/applications/hicappo/controllers/api.py", line 177, in get_tenant_listings\n    if q.id is not None:\nAttributeError: \'NoneType\' object has no attribute \'id\'\n'
p11
s.